target datalayout = "e-m:e-p270:32:32-p271:32:32-p272:64:64-i64:64-i128:128-f80:128-n8:16:32:64-S128"
target triple = "x86_64-pc-linux-gnu"

%struct.AVFormatContext = type { ptr, ptr, ptr, ptr, ptr, i32, i32, ptr, i32, ptr, i32, ptr, ptr, i64, i64, i64, i32, i32, i32, i64, i64, ptr, i32, i32, ptr, i32, i32, i32, i32, ptr, i64, i32, i32, %struct.AVIOInterruptCB, i32, i32, i32, i32, i64, i32, i32, i32, i32, i32, i32, i32, i32, i32, i32, i32, i32, i64, i32, i32, i32, i32, i32, ptr, ptr, ptr, ptr, i32, ptr, ptr, ptr, ptr, i32, ptr, ptr, i64, ptr, ptr, ptr, i64 }
%struct.AVIOInterruptCB = type { ptr, ptr }
%struct.AVIContext = type { ptr, ptr, i64, i64, i64, i64, i32, i32, i32, i32, i32 }

@.str.53 = private unnamed_addr constant [49 x i8] c"reserve_index_space:%d master_index_max_size:%d\0A\00", align 1

; Function Attrs: cold nounwind optsize uwtable
define internal i32 @avi_init(ptr noundef %0) #1 {
  %2 = alloca ptr, align 8
  %3 = alloca ptr, align 8
  store ptr %0, ptr %2, align 8, !tbaa !4
  call void @llvm.lifetime.start.p0(i64 8, ptr %3) #12
  %4 = load ptr, ptr %2, align 8, !tbaa !4
  %5 = getelementptr inbounds nuw %struct.AVFormatContext, ptr %4, i32 0, i32 3
  %6 = load ptr, ptr %5, align 8, !tbaa !9
  store ptr %6, ptr %3, align 8, !tbaa !26
  %7 = load ptr, ptr %3, align 8, !tbaa !26
  %8 = getelementptr inbounds nuw %struct.AVIContext, ptr %7, i32 0, i32 7
  %9 = load i32, ptr %8, align 4, !tbaa !65
  %10 = icmp sgt i32 %9, 0
  br i1 %10, label %11, label %32

11:                                               ; preds = %1
  %12 = load ptr, ptr %3, align 8, !tbaa !26
  %13 = getelementptr inbounds nuw %struct.AVIContext, ptr %12, i32 0, i32 7
  %14 = load i32, ptr %13, align 4, !tbaa !65
  %15 = sub nsw i32 %14, 32
  %16 = sdiv i32 %15, 16
  %17 = load ptr, ptr %3, align 8, !tbaa !26
  %18 = getelementptr inbounds nuw %struct.AVIContext, ptr %17, i32 0, i32 8
  store i32 %16, ptr %18, align 8, !tbaa !69
  %19 = load ptr, ptr %3, align 8, !tbaa !26
  %20 = getelementptr inbounds nuw %struct.AVIContext, ptr %19, i32 0, i32 8
  %21 = load i32, ptr %20, align 8, !tbaa !69
  %22 = icmp sgt i32 %21, 16
  br i1 %22, label %23, label %27

23:                                               ; preds = %11
  %24 = load ptr, ptr %3, align 8, !tbaa !26
  %25 = getelementptr inbounds nuw %struct.AVIContext, ptr %24, i32 0, i32 8
  %26 = load i32, ptr %25, align 8, !tbaa !69
  br label %28

27:                                               ; preds = %11
  br label %28

28:                                               ; preds = %27, %23
  %29 = phi i32 [ %26, %23 ], [ 16, %27 ]
  %30 = load ptr, ptr %3, align 8, !tbaa !26
  %31 = getelementptr inbounds nuw %struct.AVIContext, ptr %30, i32 0, i32 8
  store i32 %29, ptr %31, align 8, !tbaa !69
  br label %35

32:                                               ; preds = %1
  %33 = load ptr, ptr %3, align 8, !tbaa !26
  %34 = getelementptr inbounds nuw %struct.AVIContext, ptr %33, i32 0, i32 8
  store i32 256, ptr %34, align 8, !tbaa !69
  br label %35

35:                                               ; preds = %32, %28
  %36 = load ptr, ptr %2, align 8, !tbaa !4
  %37 = load ptr, ptr %3, align 8, !tbaa !26
  %38 = getelementptr inbounds nuw %struct.AVIContext, ptr %37, i32 0, i32 7
  %39 = load i32, ptr %38, align 4, !tbaa !65
  %40 = load ptr, ptr %3, align 8, !tbaa !26
  %41 = getelementptr inbounds nuw %struct.AVIContext, ptr %40, i32 0, i32 8
  %42 = load i32, ptr %41, align 8, !tbaa !69
  call void (ptr, i32, ptr, ...) @av_log(ptr noundef %36, i32 noundef 48, ptr noundef @.str.53, i32 noundef %39, i32 noundef %42)
  call void @llvm.lifetime.end.p0(i64 8, ptr %3) #12
  ret i32 1
}