; Function Attrs: cold nounwind optsize uwtable
define internal noundef i32 @avi_init(ptr noundef %0) #1 {
  %2 = getelementptr inbounds nuw i8, ptr %0, i64 24
  %3 = load ptr, ptr %2, align 8, !tbaa !4
  %4 = getelementptr inbounds nuw i8, ptr %3, i64 52
  %5 = load i32, ptr %4, align 4, !tbaa !61
  %6 = icmp sgt i32 %5, 0
  br i1 %6, label %7, label %11

7:                                                ; preds = %1
  %8 = add nsw i32 %5, -32
  %9 = sdiv i32 %8, 16
  %10 = icmp samesign ugt i32 %5, 303
  %spec.select = select i1 %10, i32 %9, i32 16
  br label %11

11:                                               ; preds = %1, %7
  %.sink = phi i32 [ %spec.select, %7 ], [ 256, %1 ]
  %12 = getelementptr inbounds nuw i8, ptr %3, i64 56
  store i32 %.sink, ptr %12, align 8, !tbaa !63
  tail call void (ptr, i32, ptr, ...) @av_log(ptr noundef nonnull %0, i32 noundef 48, ptr noundef nonnull @.str.53, i32 noundef %5, i32 noundef %.sink) #10
  ret i32 1
}